; Function Attrs: mustprogress nofree norecurse nounwind memory(argmem: readwrite, inaccessiblemem: readwrite) uwtable
define hidden void @_ZN20G1EvacFailureRegionsC2Ev(ptr noundef nonnull align 8 dereferenceable(84) %0) unnamed_addr #0 align 2 {
  tail call void @llvm.memset.p0.i64(ptr noundef nonnull align 8 dereferenceable(16) %0, i8 0, i64 16, i1 false)
  %2 = getelementptr inbounds i8, ptr %0, i64 16
  store i8 5, ptr %2, align 8
  %3 = getelementptr inbounds i8, ptr %0, i64 24
  tail call void @llvm.memset.p0.i64(ptr noundef nonnull align 8 dereferenceable(16) %3, i8 0, i64 16, i1 false)
  %4 = getelementptr inbounds i8, ptr %0, i64 40
  store i8 5, ptr %4, align 8
  %5 = getelementptr inbounds i8, ptr %0, i64 48
  tail call void @llvm.memset.p0.i64(ptr noundef nonnull align 8 dereferenceable(16) %5, i8 0, i64 16, i1 false)
  %6 = getelementptr inbounds i8, ptr %0, i64 64
  store i8 5, ptr %6, align 8
  %7 = getelementptr inbounds i8, ptr %0, i64 72
  store ptr null, ptr %7, align 8
  %8 = getelementptr inbounds i8, ptr %0, i64 80
  store volatile i32 0, ptr %8, align 8
  ret void
}